(lp0
(I1
I8
I7
I3
I2
I5
I0
I6
I4
tp1
a(I0
I8
I4
I6
I1
I3
I5
I2
I7
tp2
a(I3
I7
I5
I0
I1
I4
I6
I2
I8
tp3
a(I0
I7
I4
I1
I3
I8
I6
I5
I2
tp4
a(I6
I5
I7
I3
I2
I8
I0
I1
I4
tp5
a(I8
I7
I3
I0
I4
I6
I1
I2
I5
tp6
a(I5
I0
I8
I4
I2
I6
I7
I1
I3
tp7
a(I8
I3
I4
I1
I2
I7
I0
I6
I5
tp8
a(I8
I1
I2
I0
I4
I7
I6
I5
I3
tp9
a(I6
I4
I1
I3
I7
I5
I2
I8
I0
tp10
a(I8
I0
I7
I3
I4
I6
I5
I1
I2
tp11
a(I5
I8
I0
I2
I7
I1
I6
I4
I3
tp12
a(I8
I5
I4
I0
I7
I1
I6
I2
I3
tp13
a(I2
I1
I8
I7
I3
I4
I5
I0
I6
tp14
a(I5
I8
I3
I1
I7
I6
I4
I0
I2
tp15
a(I1
I7
I5
I2
I0
I3
I4
I6
I8
tp16
a(I1
I5
I6
I4
I7
I2
I0
I3
I8
tp17
a(I6
I0
I2
I3
I1
I7
I4
I8
I5
tp18
a(I7
I1
I0
I5
I8
I6
I4
I2
I3
tp19
a(I7
I8
I0
I4
I6
I5
I2
I3
I1
tp20
a(I3
I1
I0
I7
I4
I2
I8
I6
I5
tp21
a(I0
I4
I7
I6
I2
I8
I1
I3
I5
tp22
a(I1
I6
I7
I0
I3
I2
I5
I4
I8
tp23
a(I6
I4
I5
I3
I2
I1
I7
I8
I0
tp24
a(I1
I0
I6
I2
I7
I4
I5
I8
I3
tp25
a(I4
I0
I5
I2
I8
I3
I7
I1
I6
tp26
a(I3
I8
I0
I2
I1
I7
I4
I5
I6
tp27
a(I4
I3
I7
I0
I1
I6
I2
I8
I5
tp28
a(I0
I2
I6
I4
I1
I8
I5
I7
I3
tp29
a(I8
I6
I1
I3
I2
I4
I7
I0
I5
tp30
a(I5
I1
I4
I3
I7
I6
I0
I2
I8
tp31
a(I5
I0
I8
I4
I1
I3
I7
I2
I6
tp32
a(I0
I6
I5
I3
I4
I8
I2
I7
I1
tp33
a(I0
I2
I6
I5
I4
I7
I3
I8
I1
tp34
a(I5
I2
I1
I8
I0
I6
I4
I3
I7
tp35
a(I0
I8
I3
I7
I6
I1
I5
I2
I4
tp36
a(I8
I6
I4
I2
I0
I1
I7
I3
I5
tp37
a(I6
I8
I0
I2
I4
I1
I3
I5
I7
tp38
a(I0
I8
I2
I5
I7
I6
I1
I3
I4
tp39
a(I0
I2
I8
I7
I1
I6
I4
I3
I5
tp40
a(I8
I2
I7
I3
I6
I4
I1
I5
I0
tp41
a(I3
I6
I2
I7
I0
I4
I8
I5
I1
tp42
a(I0
I4
I5
I8
I6
I1
I3
I7
I2
tp43
a(I3
I7
I6
I8
I2
I1
I0
I4
I5
tp44
a(I3
I1
I5
I2
I6
I0
I4
I8
I7
tp45
a(I5
I8
I4
I1
I2
I3
I7
I6
I0
tp46
a(I5
I7
I0
I8
I6
I4
I3
I2
I1
tp47
a(I8
I3
I4
I6
I1
I7
I0
I2
I5
tp48
a(I2
I6
I4
I7
I3
I5
I0
I1
I8
tp49
a(I4
I8
I3
I1
I5
I2
I0
I6
I7
tp50
a(I3
I7
I0
I6
I8
I5
I4
I1
I2
tp51
a(I0
I8
I2
I4
I3
I1
I5
I7
I6
tp52
a(I5
I3
I2
I1
I4
I8
I7
I6
I0
tp53
a(I4
I2
I6
I5
I3
I1
I0
I7
I8
tp54
a(I3
I2
I6
I1
I4
I0
I7
I8
I5
tp55
a(I5
I6
I8
I1
I3
I0
I7
I2
I4
tp56
a(I3
I4
I2
I0
I5
I1
I7
I8
I6
tp57
a(I1
I6
I2
I8
I5
I4
I7
I3
I0
tp58
a(I8
I0
I7
I2
I6
I3
I4
I1
I5
tp59
a(I4
I7
I5
I0
I2
I8
I3
I1
I6
tp60
a(I5
I2
I0
I1
I6
I4
I8
I3
I7
tp61
a(I1
I4
I6
I5
I7
I3
I2
I8
I0
tp62
a(I4
I5
I7
I2
I1
I8
I6
I0
I3
tp63
a(I8
I7
I5
I4
I1
I2
I3
I6
I0
tp64
a(I1
I7
I8
I4
I2
I6
I3
I5
I0
tp65
a(I6
I8
I7
I3
I4
I1
I2
I0
I5
tp66
a(I5
I1
I3
I0
I6
I4
I2
I7
I8
tp67
a(I0
I4
I6
I2
I1
I5
I7
I3
I8
tp68
a(I3
I4
I0
I2
I7
I8
I5
I1
I6
tp69
a(I6
I2
I7
I5
I1
I0
I8
I4
I3
tp70
a(I8
I0
I2
I5
I7
I1
I6
I4
I3
tp71
a(I4
I8
I6
I0
I1
I2
I5
I3
I7
tp72
a(I6
I1
I3
I5
I4
I2
I8
I7
I0
tp73
a(I4
I8
I6
I5
I0
I2
I1
I7
I3
tp74
a(I5
I7
I1
I3
I4
I8
I6
I2
I0
tp75
a(I6
I8
I4
I3
I2
I0
I1
I7
I5
tp76
a(I8
I7
I6
I1
I5
I3
I2
I0
I4
tp77
a(I4
I5
I1
I6
I3
I7
I2
I0
I8
tp78
a(I5
I0
I1
I7
I6
I4
I3
I2
I8
tp79
a(I0
I2
I4
I6
I8
I3
I7
I5
I1
tp80
a(I7
I5
I1
I6
I8
I0
I2
I3
I4
tp81
a(I7
I3
I1
I2
I0
I6
I4
I5
I8
tp82
a(I0
I3
I4
I2
I1
I5
I8
I7
I6
tp83
a(I0
I8
I6
I7
I3
I5
I1
I2
I4
tp84
a(I0
I4
I2
I3
I1
I6
I8
I5
I7
tp85
a(I8
I3
I0
I6
I7
I2
I5
I1
I4
tp86
a(I3
I2
I8
I1
I5
I6
I4
I0
I7
tp87
a(I7
I4
I6
I3
I1
I5
I2
I0
I8
tp88
a(I2
I7
I0
I4
I1
I5
I8
I6
I3
tp89
a(I8
I2
I1
I3
I7
I5
I4
I0
I6
tp90
a(I1
I7
I5
I0
I6
I3
I2
I4
I8
tp91
a(I4
I1
I5
I2
I3
I0
I6
I8
I7
tp92
a(I1
I4
I0
I2
I8
I7
I5
I3
I6
tp93
a(I4
I0
I2
I5
I7
I6
I3
I1
I8
tp94
a(I6
I3
I1
I8
I4
I0
I5
I7
I2
tp95
a(I5
I7
I4
I1
I8
I2
I6
I3
I0
tp96
a(I7
I5
I2
I4
I1
I3
I8
I6
I0
tp97
a(I5
I1
I8
I6
I0
I7
I4
I3
I2
tp98
a(I1
I5
I4
I2
I0
I7
I3
I8
I6
tp99
a(I4
I6
I5
I8
I3
I1
I2
I0
I7
tp100
a.