(lp0
(I0
I7
I8
I3
I2
I4
I5
I6
I1
tp1
a(I7
I2
I3
I4
I6
I1
I0
I8
I5
tp2
a(I6
I2
I5
I1
I7
I8
I4
I0
I3
tp3
a(I8
I5
I6
I4
I7
I0
I3
I2
I1
tp4
a(I7
I3
I5
I1
I2
I8
I6
I0
I4
tp5
a(I4
I8
I1
I2
I3
I5
I0
I7
I6
tp6
a(I1
I0
I2
I4
I6
I7
I8
I5
I3
tp7
a(I2
I5
I8
I7
I3
I6
I1
I0
I4
tp8
a(I7
I5
I0
I6
I3
I2
I1
I8
I4
tp9
a(I8
I4
I5
I0
I7
I1
I3
I2
I6
tp10
a(I5
I3
I6
I8
I0
I2
I1
I4
I7
tp11
a(I7
I6
I3
I5
I4
I8
I0
I1
I2
tp12
a(I8
I0
I1
I6
I4
I3
I7
I2
I5
tp13
a(I7
I4
I3
I1
I5
I8
I2
I6
I0
tp14
a(I8
I5
I0
I1
I3
I6
I4
I7
I2
tp15
a(I3
I8
I7
I4
I2
I0
I1
I5
I6
tp16
a(I7
I0
I8
I6
I2
I3
I1
I5
I4
tp17
a(I1
I8
I0
I7
I4
I2
I3
I6
I5
tp18
a(I2
I6
I4
I1
I3
I0
I8
I7
I5
tp19
a(I0
I6
I5
I4
I3
I2
I7
I1
I8
tp20
a(I4
I5
I8
I2
I1
I7
I3
I6
I0
tp21
a(I8
I3
I7
I1
I0
I2
I4
I5
I6
tp22
a(I5
I6
I0
I4
I8
I7
I2
I3
I1
tp23
a(I3
I2
I0
I4
I7
I5
I1
I6
I8
tp24
a(I6
I2
I1
I8
I0
I7
I5
I4
I3
tp25
a(I8
I6
I2
I5
I1
I7
I3
I0
I4
tp26
a(I6
I1
I2
I7
I5
I4
I0
I8
I3
tp27
a(I1
I5
I4
I2
I0
I8
I6
I7
I3
tp28
a(I6
I5
I8
I7
I3
I1
I0
I2
I4
tp29
a(I5
I3
I2
I6
I8
I0
I1
I4
I7
tp30
a(I3
I7
I4
I2
I8
I6
I5
I1
I0
tp31
a(I5
I3
I6
I2
I7
I1
I4
I8
I0
tp32
a(I3
I0
I4
I8
I5
I7
I6
I1
I2
tp33
a(I7
I2
I5
I8
I6
I1
I0
I4
I3
tp34
a(I4
I7
I6
I3
I1
I2
I0
I5
I8
tp35
a(I0
I4
I6
I8
I3
I1
I2
I5
I7
tp36
a(I0
I2
I5
I7
I1
I4
I8
I6
I3
tp37
a(I4
I5
I8
I1
I3
I7
I0
I2
I6
tp38
a(I4
I2
I6
I8
I1
I0
I7
I5
I3
tp39
a(I2
I3
I1
I0
I6
I5
I7
I4
I8
tp40
a(I8
I7
I4
I6
I0
I5
I3
I2
I1
tp41
a(I3
I2
I0
I1
I8
I6
I4
I7
I5
tp42
a(I3
I4
I8
I5
I1
I2
I7
I6
I0
tp43
a(I6
I3
I5
I4
I8
I2
I0
I1
I7
tp44
a(I4
I1
I5
I6
I7
I2
I8
I0
I3
tp45
a(I3
I0
I1
I5
I2
I7
I8
I4
I6
tp46
a(I1
I7
I8
I2
I5
I3
I4
I0
I6
tp47
a(I1
I4
I8
I5
I0
I3
I6
I7
I2
tp48
a(I6
I8
I4
I3
I5
I0
I2
I7
I1
tp49
a(I6
I7
I3
I0
I4
I8
I5
I2
I1
tp50
a.